; Function Attrs: mustprogress nounwind uwtable
define internal void @_ZN9grpc_core12_GLOBAL__N_118WeightedRoundRobin6Picker21SubchannelCallTrackerD2Ev(ptr nocapture noundef nonnull align 8 dereferenceable(32) %this) unnamed_addr #13 align 2 personality ptr @__gxx_personality_v0 {
entry:
  store ptr getelementptr inbounds ({ [6 x ptr] }, ptr @_ZTVN9grpc_core12_GLOBAL__N_118WeightedRoundRobin6Picker21SubchannelCallTrackerE, i64 0, i32 0, i64 2), ptr %this, align 8
  %child_tracker_ = getelementptr inbounds i8, ptr %this, i64 24
  %0 = load ptr, ptr %child_tracker_, align 8
  %cmp.not.i = icmp eq ptr %0, null
  br i1 %cmp.not.i, label %_ZNSt10unique_ptrIN9grpc_core19LoadBalancingPolicy30SubchannelCallTrackerInterfaceESt14default_deleteIS2_EED2Ev.exit, label %_ZNKSt14default_deleteIN9grpc_core19LoadBalancingPolicy30SubchannelCallTrackerInterfaceEEclEPS2_.exit.i

_ZNKSt14default_deleteIN9grpc_core19LoadBalancingPolicy30SubchannelCallTrackerInterfaceEEclEPS2_.exit.i: ; preds = %entry
  %vtable.i.i = load ptr, ptr %0, align 8
  %vfn.i.i = getelementptr inbounds i8, ptr %vtable.i.i, i64 8
  %1 = load ptr, ptr %vfn.i.i, align 8
  tail call void %1(ptr noundef nonnull align 8 dereferenceable(8) %0) #30
  br label %_ZNSt10unique_ptrIN9grpc_core19LoadBalancingPolicy30SubchannelCallTrackerInterfaceESt14default_deleteIS2_EED2Ev.exit

_ZNSt10unique_ptrIN9grpc_core19LoadBalancingPolicy30SubchannelCallTrackerInterfaceESt14default_deleteIS2_EED2Ev.exit: ; preds = %entry, %_ZNKSt14default_deleteIN9grpc_core19LoadBalancingPolicy30SubchannelCallTrackerInterfaceEEclEPS2_.exit.i
  store ptr null, ptr %child_tracker_, align 8
  %weight_ = getelementptr inbounds i8, ptr %this, i64 8
  %weight_.val = load ptr, ptr %weight_, align 8
  %cmp.not.i1 = icmp eq ptr %weight_.val, null
  br i1 %cmp.not.i1, label %_ZN9grpc_core13RefCountedPtrINS_12_GLOBAL__N_118WeightedRoundRobin14EndpointWeightEED2Ev.exit, label %if.then.i

if.then.i:                                        ; preds = %_ZNSt10unique_ptrIN9grpc_core19LoadBalancingPolicy30SubchannelCallTrackerInterfaceESt14default_deleteIS2_EED2Ev.exit
  %refs_.i.i = getelementptr inbounds i8, ptr %weight_.val, i64 8
  %2 = atomicrmw sub ptr %refs_.i.i, i64 1 acq_rel, align 8
  %cmp.i.i.i = icmp eq i64 %2, 1
  br i1 %cmp.i.i.i, label %if.then.i.i, label %_ZN9grpc_core13RefCountedPtrINS_12_GLOBAL__N_118WeightedRoundRobin14EndpointWeightEED2Ev.exit

if.then.i.i:                                      ; preds = %if.then.i
  %vtable.i.i.i = load ptr, ptr %weight_.val, align 8
  %vfn.i.i.i = getelementptr inbounds i8, ptr %vtable.i.i.i, i64 8
  %3 = load ptr, ptr %vfn.i.i.i, align 8
  tail call void %3(ptr noundef nonnull align 8 dereferenceable(104) %weight_.val) #30
  br label %_ZN9grpc_core13RefCountedPtrINS_12_GLOBAL__N_118WeightedRoundRobin14EndpointWeightEED2Ev.exit

_ZN9grpc_core13RefCountedPtrINS_12_GLOBAL__N_118WeightedRoundRobin14EndpointWeightEED2Ev.exit: ; preds = %_ZNSt10unique_ptrIN9grpc_core19LoadBalancingPolicy30SubchannelCallTrackerInterfaceESt14default_deleteIS2_EED2Ev.exit, %if.then.i, %if.then.i.i
  ret void
}